(igan_task
GANTask
p1
(dp2
S'_config'
p3
(dp4
S'g_lr'
p5
F0.001
sS'd_rounds'
p6
I1
sS'g_rounds'
p7
I1
sS'dataset'
p8
S'web'
p9
sS'vis_num_sample'
p10
I5
sS'sample_len'
p11
I1
sS'extra_checkpoint_freq'
p12
I5
sS'attr_disc_num_layers'
p13
I5
sS'num_packing'
p14
I1
sS'gen_attribute_num_layers'
p15
I3
sS'epoch'
p16
I400
sS'attr_disc_num_units'
p17
I200
sS'initial_state'
p18
S'random'
p19
sS'd_gp_coe'
p20
F10
sS'noise'
p21
I01
sS'run'
p22
I0
sS'disc_num_layers'
p23
I5
sS'g_attr_d_coe'
p24
F1
sS'batch_size'
p25
I100
sS'gen_feature_num_units'
p26
I100
sS'self_norm'
p27
I01
sS'attr_d_lr'
p28
F0.001
sS'gen_feature_num_layers'
p29
I1
sS'gen_attribute_num_units'
p30
I100
sS'vis_freq'
p31
I200
sS'd_lr'
p32
F0.001
sS'disc_num_units'
p33
I200
sS'aux_disc'
p34
I01
sS'epoch_checkpoint_freq'
p35
I1
sS'attr_d_gp_coe'
p36
F10
sS'feed_back'
p37
I00
ssS'_work_dir'
p38
S'../results/aux_disc-True,dataset-web,epoch-400,epoch_checkpoint_freq-1,extra_checkpoint_freq-5,run-0,sample_len-1,self_norm-True,'
p39
sb.