(lp0
ccopy_reg
_reconstructor
p1
(coutput
Output
p2
c__builtin__
object
p3
Ntp4
Rp5
(dp6
S'dim'
p7
I15
sS'type_'
p8
coutput
OutputType
p9
(S'DISCRETE'
p10
tp11
Rp12
sS'is_gen_flag'
p13
I00
sS'normalization'
p14
Nsbag1
(g2
g3
Ntp15
Rp16
(dp17
g7
I5
sg8
g12
sg13
I00
sg14
Nsbag1
(g2
g3
Ntp18
Rp19
(dp20
g7
I53
sg8
g12
sg13
I00
sg14
Nsba.