(lp0
ccopy_reg
_reconstructor
p1
(coutput
Output
p2
c__builtin__
object
p3
Ntp4
Rp5
(dp6
S'dim'
p7
I1
sS'type_'
p8
coutput
OutputType
p9
(S'CONTINUOUS'
p10
tp11
Rp12
sS'is_gen_flag'
p13
I00
sS'normalization'
p14
coutput
Normalization
p15
(S'ZERO_ONE'
p16
tp17
Rp18
sbag1
(g2
g3
Ntp19
Rp20
(dp21
g7
I1
sg8
g12
sg13
I00
sg14
g18
sba.